; ModuleID = '20/285.c'
source_filename = "20/285.c"
target datalayout = "e-m:e-p270:32:32-p271:32:32-p272:64:64-i64:64-f80:128-n8:16:32:64-S128"
target triple = "x86_64-pc-linux-gnu"

@.str = private unnamed_addr constant [6 x i8] c"%s %s\00", align 1
@.str.1 = private unnamed_addr constant [3 x i8] c"%c\00", align 1
@.str.2 = private unnamed_addr constant [3 x i8] c"%s\00", align 1
@.str.3 = private unnamed_addr constant [2 x i8] c"\0A\00", align 1

; Function Attrs: noinline nounwind uwtable
define dso_local void @main() #0 {
  %1 = alloca [11 x i8], align 1
  %2 = alloca [4 x i8], align 1
  %3 = alloca i8, align 1
  %4 = alloca i32, align 4
  %5 = alloca i32, align 4
  %6 = alloca i32, align 4
  %7 = bitcast [11 x i8]* %1 to i8*
  call void @llvm.memset.p0i8.i64(i8* align 1 %7, i8 0, i64 11, i1 false)
  %8 = bitcast [4 x i8]* %2 to i8*
  call void @llvm.memset.p0i8.i64(i8* align 1 %8, i8 0, i64 4, i1 false)
  br label %9

9:                                                ; preds = %77, %0
  %10 = getelementptr inbounds [11 x i8], [11 x i8]* %1, i64 0, i64 0
  %11 = getelementptr inbounds [4 x i8], [4 x i8]* %2, i64 0, i64 0
  %12 = call i32 (i8*, ...) @__isoc99_scanf(i8* getelementptr inbounds ([6 x i8], [6 x i8]* @.str, i64 0, i64 0), i8* %10, i8* %11)
  %13 = icmp ne i32 %12, -1
  br i1 %13, label %14, label %79

14:                                               ; preds = %9
  %15 = getelementptr inbounds [11 x i8], [11 x i8]* %1, i64 0, i64 0
  %16 = call i64 @strlen(i8* %15) #4
  %17 = trunc i64 %16 to i32
  store i32 %17, i32* %6, align 4
  %18 = getelementptr inbounds [11 x i8], [11 x i8]* %1, i64 0, i64 0
  %19 = load i8, i8* %18, align 1
  store i8 %19, i8* %3, align 1
  store i32 1, i32* %4, align 4
  br label %20

20:                                               ; preds = %40, %14
  %21 = load i32, i32* %4, align 4
  %22 = load i32, i32* %6, align 4
  %23 = icmp slt i32 %21, %22
  br i1 %23, label %24, label %43

24:                                               ; preds = %20
  %25 = load i32, i32* %4, align 4
  %26 = sext i32 %25 to i64
  %27 = getelementptr inbounds [11 x i8], [11 x i8]* %1, i64 0, i64 %26
  %28 = load i8, i8* %27, align 1
  %29 = sext i8 %28 to i32
  %30 = load i8, i8* %3, align 1
  %31 = sext i8 %30 to i32
  %32 = icmp sgt i32 %29, %31
  br i1 %32, label %33, label %39

33:                                               ; preds = %24
  %34 = load i32, i32* %4, align 4
  %35 = sext i32 %34 to i64
  %36 = getelementptr inbounds [11 x i8], [11 x i8]* %1, i64 0, i64 %35
  %37 = load i8, i8* %36, align 1
  store i8 %37, i8* %3, align 1
  %38 = load i32, i32* %4, align 4
  store i32 %38, i32* %5, align 4
  br label %39

39:                                               ; preds = %33, %24
  br label %40

40:                                               ; preds = %39
  %41 = load i32, i32* %4, align 4
  %42 = add nsw i32 %41, 1
  store i32 %42, i32* %4, align 4
  br label %20

43:                                               ; preds = %20
  store i32 0, i32* %4, align 4
  br label %44

44:                                               ; preds = %55, %43
  %45 = load i32, i32* %4, align 4
  %46 = load i32, i32* %5, align 4
  %47 = icmp sle i32 %45, %46
  br i1 %47, label %48, label %58

48:                                               ; preds = %44
  %49 = load i32, i32* %4, align 4
  %50 = sext i32 %49 to i64
  %51 = getelementptr inbounds [11 x i8], [11 x i8]* %1, i64 0, i64 %50
  %52 = load i8, i8* %51, align 1
  %53 = sext i8 %52 to i32
  %54 = call i32 (i8*, ...) @printf(i8* getelementptr inbounds ([3 x i8], [3 x i8]* @.str.1, i64 0, i64 0), i32 %53)
  br label %55

55:                                               ; preds = %48
  %56 = load i32, i32* %4, align 4
  %57 = add nsw i32 %56, 1
  store i32 %57, i32* %4, align 4
  br label %44

58:                                               ; preds = %44
  %59 = getelementptr inbounds [4 x i8], [4 x i8]* %2, i64 0, i64 0
  %60 = call i32 (i8*, ...) @printf(i8* getelementptr inbounds ([3 x i8], [3 x i8]* @.str.2, i64 0, i64 0), i8* %59)
  %61 = load i32, i32* %5, align 4
  %62 = add nsw i32 %61, 1
  store i32 %62, i32* %4, align 4
  br label %63

63:                                               ; preds = %74, %58
  %64 = load i32, i32* %4, align 4
  %65 = load i32, i32* %6, align 4
  %66 = icmp slt i32 %64, %65
  br i1 %66, label %67, label %77

67:                                               ; preds = %63
  %68 = load i32, i32* %4, align 4
  %69 = sext i32 %68 to i64
  %70 = getelementptr inbounds [11 x i8], [11 x i8]* %1, i64 0, i64 %69
  %71 = load i8, i8* %70, align 1
  %72 = sext i8 %71 to i32
  %73 = call i32 (i8*, ...) @printf(i8* getelementptr inbounds ([3 x i8], [3 x i8]* @.str.1, i64 0, i64 0), i32 %72)
  br label %74

74:                                               ; preds = %67
  %75 = load i32, i32* %4, align 4
  %76 = add nsw i32 %75, 1
  store i32 %76, i32* %4, align 4
  br label %63

77:                                               ; preds = %63
  %78 = call i32 (i8*, ...) @printf(i8* getelementptr inbounds ([2 x i8], [2 x i8]* @.str.3, i64 0, i64 0))
  br label %9

79:                                               ; preds = %9
  ret void
}

; Function Attrs: argmemonly nounwind willreturn
declare void @llvm.memset.p0i8.i64(i8* nocapture writeonly, i8, i64, i1 immarg) #1

declare dso_local i32 @__isoc99_scanf(i8*, ...) #2

; Function Attrs: nounwind readonly
declare dso_local i64 @strlen(i8*) #3

declare dso_local i32 @printf(i8*, ...) #2


!llvm.module.flags = !{!0}
!llvm.ident = !{!1}

!0 = !{i32 1, !"wchar_size", i32 4}
!1 = !{!"clang version 10.0.0-4ubuntu1 "}
